; ModuleID = '36/1643.c'
source_filename = "36/1643.c"
target datalayout = "e-m:e-p270:32:32-p271:32:32-p272:64:64-i64:64-f80:128-n8:16:32:64-S128"
target triple = "x86_64-pc-linux-gnu"

%struct.abc = type { [1000 x i32], [1000 x i8] }

@.str = private unnamed_addr constant [6 x i8] c"%s %s\00", align 1
@.str.1 = private unnamed_addr constant [3 x i8] c"NO\00", align 1
@.str.2 = private unnamed_addr constant [4 x i8] c"YES\00", align 1

; Function Attrs: noinline nounwind uwtable
define dso_local i32 @main() #0 {
  %1 = alloca i32, align 4
  %2 = alloca i32, align 4
  %3 = alloca i32, align 4
  %4 = alloca %struct.abc, align 4
  %5 = alloca %struct.abc, align 4
  %6 = alloca i32, align 4
  %7 = alloca i32, align 4
  store i32 0, i32* %1, align 4
  %8 = getelementptr inbounds %struct.abc, %struct.abc* %4, i32 0, i32 1
  %9 = getelementptr inbounds [1000 x i8], [1000 x i8]* %8, i64 0, i64 0
  %10 = getelementptr inbounds %struct.abc, %struct.abc* %5, i32 0, i32 1
  %11 = getelementptr inbounds [1000 x i8], [1000 x i8]* %10, i64 0, i64 0
  %12 = call i32 (i8*, ...) @__isoc99_scanf(i8* getelementptr inbounds ([6 x i8], [6 x i8]* @.str, i64 0, i64 0), i8* %9, i8* %11)
  %13 = getelementptr inbounds %struct.abc, %struct.abc* %4, i32 0, i32 1
  %14 = getelementptr inbounds [1000 x i8], [1000 x i8]* %13, i64 0, i64 0
  %15 = call i64 @strlen(i8* %14) #3
  %16 = trunc i64 %15 to i32
  store i32 %16, i32* %2, align 4
  %17 = getelementptr inbounds %struct.abc, %struct.abc* %5, i32 0, i32 1
  %18 = getelementptr inbounds [1000 x i8], [1000 x i8]* %17, i64 0, i64 0
  %19 = call i64 @strlen(i8* %18) #3
  %20 = trunc i64 %19 to i32
  store i32 %20, i32* %3, align 4
  %21 = load i32, i32* %2, align 4
  %22 = load i32, i32* %3, align 4
  %23 = icmp ne i32 %21, %22
  br i1 %23, label %24, label %26

24:                                               ; preds = %0
  %25 = call i32 (i8*, ...) @printf(i8* getelementptr inbounds ([3 x i8], [3 x i8]* @.str.1, i64 0, i64 0))
  br label %109

26:                                               ; preds = %0
  store i32 0, i32* %6, align 4
  br label %27

27:                                               ; preds = %36, %26
  %28 = load i32, i32* %6, align 4
  %29 = load i32, i32* %2, align 4
  %30 = icmp slt i32 %28, %29
  br i1 %30, label %31, label %39

31:                                               ; preds = %27
  %32 = getelementptr inbounds %struct.abc, %struct.abc* %5, i32 0, i32 0
  %33 = load i32, i32* %6, align 4
  %34 = sext i32 %33 to i64
  %35 = getelementptr inbounds [1000 x i32], [1000 x i32]* %32, i64 0, i64 %34
  store i32 0, i32* %35, align 4
  br label %36

36:                                               ; preds = %31
  %37 = load i32, i32* %6, align 4
  %38 = add nsw i32 %37, 1
  store i32 %38, i32* %6, align 4
  br label %27

39:                                               ; preds = %27
  store i32 0, i32* %6, align 4
  br label %40

40:                                               ; preds = %80, %39
  %41 = load i32, i32* %6, align 4
  %42 = load i32, i32* %2, align 4
  %43 = icmp slt i32 %41, %42
  br i1 %43, label %44, label %83

44:                                               ; preds = %40
  store i32 0, i32* %7, align 4
  br label %45

45:                                               ; preds = %76, %44
  %46 = load i32, i32* %7, align 4
  %47 = load i32, i32* %2, align 4
  %48 = icmp slt i32 %46, %47
  br i1 %48, label %49, label %79

49:                                               ; preds = %45
  %50 = getelementptr inbounds %struct.abc, %struct.abc* %5, i32 0, i32 0
  %51 = load i32, i32* %7, align 4
  %52 = sext i32 %51 to i64
  %53 = getelementptr inbounds [1000 x i32], [1000 x i32]* %50, i64 0, i64 %52
  %54 = load i32, i32* %53, align 4
  %55 = icmp eq i32 %54, 0
  br i1 %55, label %56, label %75

56:                                               ; preds = %49
  %57 = getelementptr inbounds %struct.abc, %struct.abc* %5, i32 0, i32 1
  %58 = load i32, i32* %7, align 4
  %59 = sext i32 %58 to i64
  %60 = getelementptr inbounds [1000 x i8], [1000 x i8]* %57, i64 0, i64 %59
  %61 = load i8, i8* %60, align 1
  %62 = sext i8 %61 to i32
  %63 = getelementptr inbounds %struct.abc, %struct.abc* %4, i32 0, i32 1
  %64 = load i32, i32* %6, align 4
  %65 = sext i32 %64 to i64
  %66 = getelementptr inbounds [1000 x i8], [1000 x i8]* %63, i64 0, i64 %65
  %67 = load i8, i8* %66, align 1
  %68 = sext i8 %67 to i32
  %69 = icmp eq i32 %62, %68
  br i1 %69, label %70, label %75

70:                                               ; preds = %56
  %71 = getelementptr inbounds %struct.abc, %struct.abc* %5, i32 0, i32 0
  %72 = load i32, i32* %7, align 4
  %73 = sext i32 %72 to i64
  %74 = getelementptr inbounds [1000 x i32], [1000 x i32]* %71, i64 0, i64 %73
  store i32 1, i32* %74, align 4
  br label %79

75:                                               ; preds = %56, %49
  br label %76

76:                                               ; preds = %75
  %77 = load i32, i32* %7, align 4
  %78 = add nsw i32 %77, 1
  store i32 %78, i32* %7, align 4
  br label %45

79:                                               ; preds = %70, %45
  br label %80

80:                                               ; preds = %79
  %81 = load i32, i32* %6, align 4
  %82 = add nsw i32 %81, 1
  store i32 %82, i32* %6, align 4
  br label %40

83:                                               ; preds = %40
  store i32 0, i32* %6, align 4
  br label %84

84:                                               ; preds = %97, %83
  %85 = load i32, i32* %6, align 4
  %86 = load i32, i32* %2, align 4
  %87 = icmp slt i32 %85, %86
  br i1 %87, label %88, label %100

88:                                               ; preds = %84
  %89 = getelementptr inbounds %struct.abc, %struct.abc* %5, i32 0, i32 0
  %90 = load i32, i32* %6, align 4
  %91 = sext i32 %90 to i64
  %92 = getelementptr inbounds [1000 x i32], [1000 x i32]* %89, i64 0, i64 %91
  %93 = load i32, i32* %92, align 4
  %94 = icmp eq i32 %93, 0
  br i1 %94, label %95, label %96

95:                                               ; preds = %88
  br label %100

96:                                               ; preds = %88
  br label %97

97:                                               ; preds = %96
  %98 = load i32, i32* %6, align 4
  %99 = add nsw i32 %98, 1
  store i32 %99, i32* %6, align 4
  br label %84

100:                                              ; preds = %95, %84
  %101 = load i32, i32* %6, align 4
  %102 = load i32, i32* %2, align 4
  %103 = icmp eq i32 %101, %102
  br i1 %103, label %104, label %106

104:                                              ; preds = %100
  %105 = call i32 (i8*, ...) @printf(i8* getelementptr inbounds ([4 x i8], [4 x i8]* @.str.2, i64 0, i64 0))
  br label %108

106:                                              ; preds = %100
  %107 = call i32 (i8*, ...) @printf(i8* getelementptr inbounds ([3 x i8], [3 x i8]* @.str.1, i64 0, i64 0))
  br label %108

108:                                              ; preds = %106, %104
  br label %109

109:                                              ; preds = %108, %24
  %110 = load i32, i32* %1, align 4
  ret i32 %110
}

declare dso_local i32 @__isoc99_scanf(i8*, ...) #1

; Function Attrs: nounwind readonly
declare dso_local i64 @strlen(i8*) #2

declare dso_local i32 @printf(i8*, ...) #1


!llvm.module.flags = !{!0}
!llvm.ident = !{!1}

!0 = !{i32 1, !"wchar_size", i32 4}
!1 = !{!"clang version 10.0.0-4ubuntu1 "}
